(dp0
S'since'
p1
F0.0006825938566552901
sS'chinese'
p2
F0.00022753128555176336
sS'maximum'
p3
F0.00022753128555176336
sS'caused'
p4
F0.00022753128555176336
sS'lack'
p5
F0.00022753128555176336
sS'focus'
p6
F0.00022753128555176336
sS'month'
p7
F0.00022753128555176336
sS'waterproof'
p8
F0.00022753128555176336
sS'gb'
p9
F0.0009101251422070534
sS'hanging'
p10
F0.0006825938566552901
sS'issues'
p11
F0.0020477815699658703
sS'requested'
p12
F0.00022753128555176336
sS'segment'
p13
F0.0006825938566552901
sS'icons'
p14
F0.00022753128555176336
sS'tv'
p15
F0.00022753128555176336
sS'flash'
p16
F0.0009101251422070534
sS'worth'
p17
F0.0011376564277588168
sS'redmi'
p18
F0.0006825938566552901
sS'supported'
p19
F0.00022753128555176336
sS'charge'
p20
F0.0015927189988623437
sS'whatsoever'
p21
F0.0009101251422070534
sS'scratch'
p22
F0.0013651877133105802
sS'recommended'
p23
F0.00022753128555176336
sS'friendly'
p24
F0.00022753128555176336
sS'sound'
p25
F0.007963594994311717
sS'smartphone'
p26
F0.00022753128555176336
sS'premium'
p27
F0.004323094425483504
sS'returned'
p28
F0.00022753128555176336
sS'far'
p29
F0.0018202502844141069
sS'resistance'
p30
F0.0006825938566552901
sS'every'
p31
F0.0009101251422070534
sS'fall'
p32
F0.0006825938566552901
sS'sleek'
p33
F0.0020477815699658703
sS'condition'
p34
F0.00022753128555176336
sS'cool'
p35
F0.0027303754266211604
sS'entire'
p36
F0.00022753128555176336
sS'impressive'
p37
F0.0009101251422070534
sS'cable'
p38
F0.0006825938566552901
sS'level'
p39
F0.0006825938566552901
sS'sensor'
p40
F0.0038680318543799774
sS'button'
p41
F0.0006825938566552901
sS'large'
p42
F0.0006825938566552901
sS'item'
p43
F0.00022753128555176336
sS'quick'
p44
F0.0020477815699658703
sS'scratches'
p45
F0.0006825938566552901
sS'htc'
p46
F0.00022753128555176336
sS'regret'
p47
F0.00022753128555176336
sS'phones'
p48
F0.002502844141069397
sS'skin'
p49
F0.00022753128555176336
sS'installing'
p50
F0.00022753128555176336
sS'rate'
p51
F0.00022753128555176336
sS'cost'
p52
F0.0006825938566552901
sS'design'
p53
F0.004550625711035267
sS'displays'
p54
F0.0006825938566552901
sS'uncomfortable'
p55
F0.00022753128555176336
sS'click'
p56
F0.00022753128555176336
sS'headset'
p57
F0.0013651877133105802
sS'appear'
p58
F0.00022753128555176336
sS'giving'
p59
F0.0009101251422070534
sS'sun'
p60
F0.00022753128555176336
sS'specification'
p61
F0.00022753128555176336
sS'stunning'
p62
F0.0011376564277588168
sS'supplied'
p63
F0.00022753128555176336
sS'access'
p64
F0.0009101251422070534
sS'version'
p65
F0.0006825938566552901
sS'above'
p66
F0.0009101251422070534
sS'new'
p67
F0.00022753128555176336
sS'net'
p68
F0.00022753128555176336
sS'ever'
p69
F0.0013651877133105802
sS'thin'
p70
F0.00022753128555176336
sS'body'
p71
F0.0013651877133105802
sS'full'
p72
F0.0022753128555176336
sS'led'
p73
F0.0009101251422070534
sS'never'
p74
F0.0009101251422070534
sS'hours'
p75
F0.0006825938566552901
sS'others'
p76
F0.0006825938566552901
sS'sexy'
p77
F0.0006825938566552901
sS'strong'
p78
F0.0006825938566552901
sS'irritating'
p79
F0.00022753128555176336
sS'softwares'
p80
F0.0006825938566552901
sS'box'
p81
F0.00022753128555176336
sS'solid'
p82
F0.0006825938566552901
sS'great'
p83
F0.009783845278725825
sS'multiwindow'
p84
F0.0006825938566552901
sS'micromax'
p85
F0.00022753128555176336
sS'brilliant'
p86
F0.0015927189988623437
sS'octa'
p87
F0.0006825938566552901
sS'changed'
p88
F0.00022753128555176336
sS'reason'
p89
F0.00022753128555176336
sS'experience'
p90
F0.0020477815699658703
sS'pics'
p91
F0.00022753128555176336
sS'products'
p92
F0.00022753128555176336
sS'makes'
p93
F0.0009101251422070534
sS'honor'
p94
F0.0006825938566552901
sS'thats'
p95
F0.00022753128555176336
sS'fantastic'
p96
F0.0009101251422070534
sS'love'
p97
F0.0009101251422070534
sS'lasts'
p98
F0.0013651877133105802
sS'extra'
p99
F0.00022753128555176336
sS'suddenly'
p100
F0.00022753128555176336
sS'app'
p101
F0.0006825938566552901
sS'worthy'
p102
F0.00022753128555176336
sS'while'
p103
F0.0015927189988623437
sS'highly'
p104
F0.0006825938566552901
sS'expect'
p105
F0.0009101251422070534
sS'vivid'
p106
F0.0009101251422070534
sS'unhappy'
p107
F0.00022753128555176336
sS'market'
p108
F0.00022753128555176336
sS'cheating'
p109
F0.00022753128555176336
sS'takes'
p110
F0.0018202502844141069
sS'working'
p111
F0.0027303754266211604
sS'remains'
p112
F0.00022753128555176336
sS'faint'
p113
F0.00022753128555176336
sS'next'
p114
F0.00022753128555176336
sS'comparing'
p115
F0.00022753128555176336
sS'camera'
p116
F0.026166097838452786
sS'call'
p117
F0.004095563139931741
sS'gorgeous'
p118
F0.0009101251422070534
sS'branded'
p119
F0.0006825938566552901
sS'until'
p120
F0.00022753128555176336
sS'minor'
p121
F0.0009101251422070534
sS'more'
p122
F0.0029579067121729237
sS'removable'
p123
F0.00022753128555176336
sS'started'
p124
F0.00022753128555176336
sS'becomes'
p125
F0.00022753128555176336
sS'company'
p126
F0.0006825938566552901
sS'under'
p127
F0.0013651877133105802
sS'glass'
p128
F0.0011376564277588168
sS'wifi'
p129
F0.0006825938566552901
sS'excellent'
p130
F0.00955631399317406
sS'rare'
p131
F0.00022753128555176336
sS'hold'
p132
F0.0022753128555176336
sS'customer'
p133
F0.00022753128555176336
sS'keeping'
p134
F0.0006825938566552901
sS'mb'
p135
F0.00022753128555176336
sS'car'
p136
F0.00022753128555176336
sS'package'
p137
F0.0009101251422070534
sS'sucks'
p138
F0.00022753128555176336
sS'cant'
p139
F0.0006825938566552901
sS'spec'
p140
F0.0006825938566552901
sS'sudden'
p141
F0.00022753128555176336
sS'bugs'
p142
F0.00022753128555176336
sS'mp'
p143
F0.0020477815699658703
sS'cam'
p144
F0.0011376564277588168
sS'didnt'
p145
F0.0006825938566552901
sS'deg'
p146
F0.00022753128555176336
sS'beautiful'
p147
F0.0009101251422070534
sS'compare'
p148
F0.0006825938566552901
sS'earphone'
p149
F0.00022753128555176336
sS'processing'
p150
F0.0011376564277588168
sS'lock'
p151
F0.0009101251422070534
sS'awesome'
p152
F0.011604095563139932
sS'slim'
p153
F0.002502844141069397
sS'terrible'
p154
F0.00022753128555176336
sS'high'
p155
F0.0031854379977246873
sS'something'
p156
F0.00022753128555176336
sS'purchased'
p157
F0.0006825938566552901
sS'allowed'
p158
F0.00022753128555176336
sS'sharp'
p159
F0.0013651877133105802
sS'disliked'
p160
F0.00022753128555176336
sS'earpiece'
p161
F0.00022753128555176336
sS'worse'
p162
F0.00022753128555176336
sS'huge'
p163
F0.00022753128555176336
sS'needs'
p164
F0.00022753128555176336
sS'end'
p165
F0.0013651877133105802
sS'drained'
p166
F0.00022753128555176336
sS'thing'
p167
F0.0015927189988623437
sS'provide'
p168
F0.00022753128555176336
sS'six'
p169
F0.00022753128555176336
sS'feature'
p170
F0.0011376564277588168
sS'till'
p171
F0.00022753128555176336
sS'amazing'
p172
F0.0027303754266211604
sS'disappoint'
p173
F0.0006825938566552901
sS'charging'
p174
F0.0029579067121729237
sS'sim'
p175
F0.0009101251422070534
sS'massive'
p176
F0.0006825938566552901
sS'upto'
p177
F0.0006825938566552901
sS'gaming'
p178
F0.0013651877133105802
sS'product'
p179
F0.004550625711035267
sS'unbeatable'
p180
F0.0006825938566552901
sS'okay'
p181
F0.00022753128555176336
sS'description'
p182
F0.00022753128555176336
sS'specifications'
p183
F0.0009101251422070534
sS'lag'
p184
F0.0036405005688282138
sS'space'
p185
F0.00022753128555176336
sS'different'
p186
F0.00022753128555176336
sS'connectivity'
p187
F0.0015927189988623437
sS'wrong'
p188
F0.00022753128555176336
sS'lighting'
p189
F0.00022753128555176336
sS'coming'
p190
F0.00022753128555176336
sS'fits'
p191
F0.0013651877133105802
sS'such'
p192
F0.0006825938566552901
sS'truly'
p193
F0.00022753128555176336
sS'guys'
p194
F0.0006825938566552901
sS'response'
p195
F0.0011376564277588168
sS'times'
p196
F0.00022753128555176336
sS'purchase'
p197
F0.0006825938566552901
sS'short'
p198
F0.00022753128555176336
sS'defective'
p199
F0.00022753128555176336
sS'light'
p200
F0.005915813424345847
sS'feels'
p201
F0.0020477815699658703
sS'st'
p202
F0.00022753128555176336
sS'switch'
p203
F0.00022753128555176336
sS'allow'
p204
F0.00022753128555176336
sS'keeps'
p205
F0.00022753128555176336
sS'worst'
p206
F0.00022753128555176336
sS'software'
p207
F0.0009101251422070534
sS'order'
p208
F0.00022753128555176336
sS'talk'
p209
F0.00022753128555176336
sS'sd'
p210
F0.00022753128555176336
sS'indeed'
p211
F0.0006825938566552901
sS'using'
p212
F0.0027303754266211604
sS'move'
p213
F0.00022753128555176336
sS'zen'
p214
F0.0006825938566552901
sS'satisfied'
p215
F0.0018202502844141069
sS'damage'
p216
F0.00022753128555176336
sS'isnt'
p217
F0.00022753128555176336
sS'through'
p218
F0.0006825938566552901
sS'looks'
p219
F0.005915813424345847
sS'mentioned'
p220
F0.00022753128555176336
sS'still'
p221
F0.00022753128555176336
sS'before'
p222
F0.00022753128555176336
sS'perfect'
p223
F0.0022753128555176336
sS'thank'
p224
F0.0006825938566552901
sS'fit'
p225
F0.0006825938566552901
sS'directional'
p226
F0.00022753128555176336
sS'expectations'
p227
F0.0009101251422070534
sS'actually'
p228
F0.00022753128555176336
sS'better'
p229
F0.004323094425483504
sS'whether'
p230
F0.00022753128555176336
sS'detected'
p231
F0.00022753128555176336
sS'whole'
p232
F0.00022753128555176336
sS'main'
p233
F0.00022753128555176336
sS'pixel'
p234
F0.0006825938566552901
sS'good'
p235
F0.06507394766780432
sS'crash'
p236
F0.00022753128555176336
sS'auto'
p237
F0.00022753128555176336
sS'material'
p238
F0.00022753128555176336
sS'hands'
p239
F0.00022753128555176336
sS'front'
p240
F0.005688282138794084
sS'handy'
p241
F0.0015927189988623437
sS'bigger'
p242
F0.00022753128555176336
sS'wont'
p243
F0.00022753128555176336
sS'easily'
p244
F0.0009101251422070534
sS'several'
p245
F0.00022753128555176336
sS'brightness'
p246
F0.0011376564277588168
sS'always'
p247
F0.00022753128555176336
sS'drop'
p248
F0.00022753128555176336
sS'someone'
p249
F0.00022753128555176336
sS'stopped'
p250
F0.00022753128555176336
sS'mode'
p251
F0.0009101251422070534
sS'each'
p252
F0.0006825938566552901
sS'found'
p253
F0.0006825938566552901
sS'gui'
p254
F0.00022753128555176336
sS'flipkart'
p255
F0.00022753128555176336
sS'heavy'
p256
F0.0006825938566552901
sS'recommend'
p257
F0.00022753128555176336
sS'weighted'
p258
F0.0006825938566552901
sS'another'
p259
F0.00022753128555176336
sS'weight'
p260
F0.0029579067121729237
sS'yellowish'
p261
F0.00022753128555176336
sS'generation'
p262
F0.00022753128555176336
sS'hard'
p263
F0.00022753128555176336
sS'used'
p264
F0.0018202502844141069
sS'unlock'
p265
F0.00022753128555176336
sS'oil'
p266
F0.0006825938566552901
sS'hanged'
p267
F0.00022753128555176336
sS'operation'
p268
F0.0009101251422070534
sS'really'
p269
F0.0061433447098976105
sS'lovers'
p270
F0.00022753128555176336
sS'network'
p271
F0.0011376564277588168
sS'solved'
p272
F0.00022753128555176336
sS'open'
p273
F0.0009101251422070534
sS'tried'
p274
F0.0006825938566552901
sS'cameras'
p275
F0.0011376564277588168
sS'reboot'
p276
F0.00022753128555176336
sS'looking'
p277
F0.0015927189988623437
sS'internet'
p278
F0.0013651877133105802
sS'print'
p279
F0.0027303754266211604
sS'got'
p280
F0.0013651877133105802
sS'receiving'
p281
F0.00022753128555176336
sS'issue'
p282
F0.0011376564277588168
sS'pathetic'
p283
F0.00022753128555176336
sS'dirt'
p284
F0.0006825938566552901
sS'little'
p285
F0.0013651877133105802
sS'free'
p286
F0.0015927189988623437
sS'quite'
p287
F0.0020477815699658703
sS'small'
p288
F0.00022753128555176336
sS'completely'
p289
F0.00022753128555176336
sS'management'
p290
F0.0006825938566552901
sS'put'
p291
F0.00022753128555176336
sS'wanted'
p292
F0.00022753128555176336
sS'lollipop'
p293
F0.00022753128555176336
sS'card'
p294
F0.0006825938566552901
sS'care'
p295
F0.0006825938566552901
sS'bloatware'
p296
F0.00022753128555176336
sS'service'
p297
F0.0006825938566552901
sS'applications'
p298
F0.0006825938566552901
sS'standby'
p299
F0.00022753128555176336
sS'starts'
p300
F0.00022753128555176336
sS'headphones'
p301
F0.0006825938566552901
sS'days'
p302
F0.00022753128555176336
sS'keep'
p303
F0.00022753128555176336
sS'terribly'
p304
F0.00022753128555176336
sS'camera-'
p305
F0.0006825938566552901
sS'transfer'
p306
F0.00022753128555176336
sS'hence'
p307
F0.00022753128555176336
sS'today'
p308
F0.00022753128555176336
sS'loud'
p309
F0.002502844141069397
sS'frequent'
p310
F0.00022753128555176336
sS'purpose'
p311
F0.00022753128555176336
sS'laggy'
p312
F0.00022753128555176336
sS'major'
p313
F0.00022753128555176336
sS'already'
p314
F0.00022753128555176336
sS'features'
p315
F0.00477815699658703
sS'ignored'
p316
F0.00022753128555176336
sS'feel'
p317
F0.0018202502844141069
sS'fancy'
p318
F0.0006825938566552901
sS'lol'
p319
F0.0006825938566552901
sS'customization'
p320
F0.00022753128555176336
sS'overheating'
p321
F0.00022753128555176336
sS'clarity'
p322
F0.002502844141069397
sS'miss'
p323
F0.00022753128555176336
sS'size'
p324
F0.0013651877133105802
sS'given'
p325
F0.0006825938566552901
sS'long'
p326
F0.0029579067121729237
sS'temperature'
p327
F0.00022753128555176336
sS'octacore'
p328
F0.00022753128555176336
sS'data'
p329
F0.00022753128555176336
sS'top'
p330
F0.0006825938566552901
sS'system'
p331
F0.00022753128555176336
sS'hangs'
p332
F0.0009101251422070534
sS'plastic'
p333
F0.00022753128555176336
sS'needed'
p334
F0.00022753128555176336
sS'wonderful'
p335
F0.00022753128555176336
sS'too'
p336
F0.0034129692832764505
sS'white'
p337
F0.0006825938566552901
sS'perfectly'
p338
F0.0011376564277588168
sS'sensitivity'
p339
F0.0006825938566552901
sS'mobiles'
p340
F0.00022753128555176336
sS'headache'
p341
F0.00022753128555176336
sS'option'
p342
F0.0011376564277588168
sS'fastly'
p343
F0.00022753128555176336
sS'serve'
p344
F0.00022753128555176336
sS'viewing'
p345
F0.0013651877133105802
sS'part'
p346
F0.0006825938566552901
sS'focusing'
p347
F0.00022753128555176336
sS'off'
p348
F0.0006825938566552901
sS'loved'
p349
F0.0013651877133105802
sS'kind'
p350
F0.0011376564277588168
sS'last'
p351
F0.0006825938566552901
sS'double'
p352
F0.0006825938566552901
sS'second'
p353
F0.0011376564277588168
sS'packed'
p354
F0.0006825938566552901
sS'recording'
p355
F0.0009101251422070534
sS'fabulous'
p356
F0.00022753128555176336
sS'moto'
p357
F0.00022753128555176336
sS'glossy'
p358
F0.00022753128555176336
sS'reproduction'
p359
F0.0013651877133105802
sS'were'
p360
F0.0009101251422070534
sS'video'
p361
F0.0027303754266211604
sS'feeling'
p362
F0.00022753128555176336
sS'outstanding'
p363
F0.0009101251422070534
sS'half'
p364
F0.0011376564277588168
sS'ram'
p365
F0.0013651877133105802
sS'few'
p366
F0.00022753128555176336
sS'comfortable'
p367
F0.0011376564277588168
sS'talking'
p368
F0.00022753128555176336
sS'need'
p369
F0.0006825938566552901
sS'curved'
p370
F0.00022753128555176336
sS'clearly'
p371
F0.00022753128555176336
sS'unbearable'
p372
F0.00022753128555176336
sS'microphone'
p373
F0.00022753128555176336
sS'nights'
p374
F0.0006825938566552901
sS'genuine'
p375
F0.0006825938566552901
sS'built'
p376
F0.0020477815699658703
sS'efficient'
p377
F0.0006825938566552901
sS'convenient'
p378
F0.0006825938566552901
sS'mic'
p379
F0.00022753128555176336
sS'storage'
p380
F0.00022753128555176336
sS'able'
p381
F0.0006825938566552901
sS'specs'
p382
F0.0006825938566552901
sS'fitting'
p383
F0.00022753128555176336
sS'internal'
p384
F0.00022753128555176336
sS'sims'
p385
F0.0006825938566552901
sS'build'
p386
F0.005005688282138794
sS'online'
p387
F0.0006825938566552901
sS'performance'
p388
F0.009101251422070534
sS'strengths'
p389
F0.00022753128555176336
sS'play'
p390
F0.00022753128555176336
sS'experienced'
p391
F0.00022753128555176336
sS'unless'
p392
F0.00022753128555176336
sS'centre'
p393
F0.00022753128555176336
sS'price'
p394
F0.013196814562002276
sS'lagging'
p395
F0.0011376564277588168
sS'device'
p396
F0.002502844141069397
sS'extremely'
p397
F0.0020477815699658703
sS'class'
p398
F0.0009101251422070534
sS'volume'
p399
F0.0015927189988623437
sS'especially'
p400
F0.0006825938566552901
sS'sturdy'
p401
F0.0013651877133105802
sS'mobile'
p402
F0.007508532423208191
sS'clear'
p403
F0.0036405005688282138
sS'side'
p404
F0.0009101251422070534
sS'cover'
p405
F0.0020477815699658703
sS'playing'
p406
F0.0009101251422070534
sS'definitely'
p407
F0.0009101251422070534
sS'asus'
p408
F0.00022753128555176336
sS'notch'
p409
F0.0006825938566552901
sS'came'
p410
F0.00022753128555176336
sS'impression'
p411
F0.00022753128555176336
sS'particularly'
p412
F0.00022753128555176336
sS'rings'
p413
F0.00022753128555176336
sS'indoor'
p414
F0.00022753128555176336
sS'cheap'
p415
F0.00022753128555176336
sS'wasted'
p416
F0.00022753128555176336
sS'bright'
p417
F0.0009101251422070534
sS'top-notch'
p418
F0.0006825938566552901
sS'fine'
p419
F0.0018202502844141069
sS'find'
p420
F0.0006825938566552901
sS'slot'
p421
F0.00022753128555176336
sS'current'
p422
F0.0006825938566552901
sS'slow'
p423
F0.00022753128555176336
sS'music'
p424
F0.0015927189988623437
sS'hrs'
p425
F0.00022753128555176336
sS'should'
p426
F0.0011376564277588168
sS'buttons'
p427
F0.00022753128555176336
sS'going'
p428
F0.00022753128555176336
sS'buying'
p429
F0.0011376564277588168
sS'pretty'
p430
F0.0015927189988623437
sS'money'
p431
F0.0013651877133105802
sS'touchscreen'
p432
F0.00022753128555176336
sS'handle'
p433
F0.0006825938566552901
sS'touch'
p434
F0.009101251422070534
sS'exceptional'
p435
F0.00022753128555176336
sS'horrible'
p436
F0.00022753128555176336
sS'overall'
p437
F0.0020477815699658703
sS'expectation'
p438
F0.00022753128555176336
sS'cheaper'
p439
F0.00022753128555176336
sS'amazon'
p440
F0.0006825938566552901
sS'cannot'
p441
F0.00022753128555176336
sS'rest'
p442
F0.00022753128555176336
sS'during'
p443
F0.00022753128555176336
sS'installed'
p444
F0.00022753128555176336
sS'restart'
p445
F0.00022753128555176336
sS'secondary'
p446
F0.00022753128555176336
sS'runs'
p447
F0.0006825938566552901
sS'settings'
p448
F0.0006825938566552901
sS'nicely'
p449
F0.0006825938566552901
sS'calling'
p450
F0.0006825938566552901
sS'inbuilt'
p451
F0.0006825938566552901
sS'twice'
p452
F0.00022753128555176336
sS'bad'
p453
F0.0009101251422070534
sS'shots'
p454
F0.0018202502844141069
sS'told'
p455
F0.00022753128555176336
sS'ears'
p456
F0.00022753128555176336
sS'bulky'
p457
F0.00022753128555176336
sS'available'
p458
F0.0009101251422070534
sS'set'
p459
F0.00022753128555176336
sS'frame'
p460
F0.00022753128555176336
sS'blurred'
p461
F0.00022753128555176336
sS'responsive'
p462
F0.0009101251422070534
sS'seal'
p463
F0.00022753128555176336
sS'close'
p464
F0.0006825938566552901
sS'best'
p465
F0.005460750853242321
sS'concern'
p466
F0.00022753128555176336
sS'loudspeaker'
p467
F0.00022753128555176336
sS'capacity'
p468
F0.0006825938566552901
sS'lots'
p469
F0.0006825938566552901
sS'pictures'
p470
F0.0013651877133105802
sS'user'
p471
F0.0006825938566552901
sS'please'
p472
F0.00022753128555176336
sS'below'
p473
F0.00022753128555176336
sS'superb'
p474
F0.006598407281001138
sS'colours'
p475
F0.0006825938566552901
sS'enough'
p476
F0.0009101251422070534
sS'unable'
p477
F0.00022753128555176336
sS'finger'
p478
F0.0034129692832764505
sS'between'
p479
F0.00022753128555176336
sS'conditions'
p480
F0.00022753128555176336
sS'bought'
p481
F0.00022753128555176336
sS'affordable'
p482
F0.0006825938566552901
sS'gives'
p483
F0.0027303754266211604
sS'vertical'
p484
F0.00022753128555176336
sS'initially'
p485
F0.00022753128555176336
sS'screen'
p486
F0.007963594994311717
sS'weak'
p487
F0.00022753128555176336
sS'however'
p488
F0.0006825938566552901
sS'interface'
p489
F0.0006825938566552901
sS'useless'
p490
F0.00022753128555176336
sS'configuration'
p491
F0.0006825938566552901
sS'faced'
p492
F0.00022753128555176336
sS'both'
p493
F0.0022753128555176336
sS'providing'
p494
F0.0009101251422070534
sS'improved'
p495
F0.00022753128555176336
sS'resistant'
p496
F0.0009101251422070534
sS'many'
p497
F0.00022753128555176336
sS'barely'
p498
F0.00022753128555176336
sS'according'
p499
F0.0011376564277588168
sS'sensitive'
p500
F0.00022753128555176336
sS'games'
p501
F0.0015927189988623437
sS'disappointment'
p502
F0.00022753128555176336
sS'protector'
p503
F0.00022753128555176336
sS'sluggish'
p504
F0.00022753128555176336
sS'comes'
p505
F0.0020477815699658703
sS'upgraded'
p506
F0.00022753128555176336
sS'liked'
p507
F0.0011376564277588168
sS'tough'
p508
F0.0009101251422070534
sS'point'
p509
F0.0009101251422070534
sS'battery'
p510
F0.02093287827076223
sS'quality'
p511
F0.022070534698521046
sS'simply'
p512
F0.0009101251422070534
sS'though'
p513
F0.0015927189988623437
sS'decent'
p514
F0.005233219567690558
sS'due'
p515
F0.0006825938566552901
sS'been'
p516
F0.0015927189988623437
sS'mark'
p517
F0.0006825938566552901
sS'much'
p518
F0.002502844141069397
sS'dont'
p519
F0.0009101251422070534
sS'expected'
p520
F0.0011376564277588168
sS'wait'
p521
F0.00022753128555176336
sS'hardly'
p522
F0.00022753128555176336
sS'location'
p523
F0.00022753128555176336
sS'compromises'
p524
F0.0006825938566552901
sS'received'
p525
F0.00022753128555176336
sS'offered'
p526
F0.0006825938566552901
sS'otg'
p527
F0.0009101251422070534
sS'photos'
p528
F0.0011376564277588168
sS'wake'
p529
F0.0006825938566552901
sS'angles'
p530
F0.0013651877133105802
sS'graphics'
p531
F0.0006825938566552901
sS'installation'
p532
F0.00022753128555176336
sS'worked'
p533
F0.00022753128555176336
sS'those'
p534
F0.00022753128555176336
sS'case'
p535
F0.00022753128555176336
sS'save'
p536
F0.00022753128555176336
sS'launcher'
p537
F0.00022753128555176336
sS'selfie'
p538
F0.0006825938566552901
sS'grainy'
p539
F0.00022753128555176336
sS'budget'
p540
F0.0022753128555176336
sS'value'
p541
F0.0015927189988623437
sS'air'
p542
F0.00022753128555176336
sS'near'
p543
F0.00022753128555176336
sS'cracked'
p544
F0.00022753128555176336
sS'voice'
p545
F0.0009101251422070534
sS'guide'
p546
F0.00022753128555176336
sS'theres'
p547
F0.00022753128555176336
sS'aluminium'
p548
F0.0006825938566552901
sS'manually'
p549
F0.00022753128555176336
sS'almost'
p550
F0.0006825938566552901
sS'coating'
p551
F0.0006825938566552901
sS'accessories'
p552
F0.0009101251422070534
sS'heating'
p553
F0.0038680318543799774
sS'hardware'
p554
F0.0013651877133105802
sS'middle'
p555
F0.00022753128555176336
sS'draining'
p556
F0.00022753128555176336
sS'itself'
p557
F0.00022753128555176336
sS'im'
p558
F0.0009101251422070534
sS'dual'
p559
F0.0009101251422070534
sS'sar'
p560
F0.00022753128555176336
sS'ready'
p561
F0.00022753128555176336
sS'return'
p562
F0.00022753128555176336
sS'damaged'
p563
F0.00022753128555176336
sS'descent'
p564
F0.0006825938566552901
sS'pay'
p565
F0.00022753128555176336
sS'make'
p566
F0.0015927189988623437
sS'same'
p567
F0.00022753128555176336
sS'drawback'
p568
F0.0009101251422070534
sS'speaker'
p569
F0.0020477815699658703
sS'waste'
p570
F0.00022753128555176336
sS'inch'
p571
F0.0013651877133105802
sS'android'
p572
F0.0011376564277588168
sS'gets'
p573
F0.00022753128555176336
sS'difficult'
p574
F0.00022753128555176336
sS'week'
p575
F0.00022753128555176336
sS'finish'
p576
F0.0006825938566552901
sS'hang'
p577
F0.0009101251422070534
sS'speakers'
p578
F0.0013651877133105802
sS'hand'
p579
F0.0027303754266211604
sS'average'
p580
F0.0027303754266211604
sS'running'
p581
F0.0006825938566552901
sS'edges'
p582
F0.00022753128555176336
sS'delicate'
p583
F0.00022753128555176336
sS'angle'
p584
F0.00022753128555176336
sS'strength'
p585
F0.0006825938566552901
sS'butter'
p586
F0.0006825938566552901
sS'drain'
p587
F0.00022753128555176336
sS'kept'
p588
F0.00022753128555176336
sS'center'
p589
F0.00022753128555176336
sS'charges'
p590
F0.00022753128555176336
sS'charger'
p591
F0.0006825938566552901
sS'colour'
p592
F0.0015927189988623437
sS'lcd'
p593
F0.00022753128555176336
sS'person'
p594
F0.00022753128555176336
sS'severe'
p595
F0.00022753128555176336
sS'without'
p596
F0.0015927189988623437
sS'very'
p597
F0.027076222980659842
sS'claims'
p598
F0.00022753128555176336
sS'model'
p599
F0.0011376564277588168
sS'audio'
p600
F0.0015927189988623437
sS'amazed'
p601
F0.0006825938566552901
sS'charged'
p602
F0.00022753128555176336
sS'rocker'
p603
F0.0006825938566552901
sS'outdoor'
p604
F0.0009101251422070534
sS'excessive'
p605
F0.00022753128555176336
sS'less'
p606
F0.0013651877133105802
sS'captures'
p607
F0.00022753128555176336
sS'proximity'
p608
F0.00022753128555176336
sS'fingerprint'
p609
F0.0038680318543799774
sS'competitive'
p610
F0.0006825938566552901
sS'not'
p611
F0.008191126279863481
sS'thanks'
p612
F0.0011376564277588168
sS'immediately'
p613
F0.00022753128555176336
sS'switched'
p614
F0.00022753128555176336
sS'useful'
p615
F0.0009101251422070534
sS'speed'
p616
F0.002502844141069397
sS'coolpad'
p617
F0.0013651877133105802
sS'vibration'
p618
F0.00022753128555176336
sS'seems'
p619
F0.0015927189988623437
sS'had'
p620
F0.0013651877133105802
sS'except'
p621
F0.0011376564277588168
sS'signals'
p622
F0.00022753128555176336
sS'attractive'
p623
F0.0006825938566552901
sS'easy'
p624
F0.0013651877133105802
sS'crack'
p625
F0.00022753128555176336
sS'usage'
p626
F0.0006825938566552901
sS'has'
p627
F0.005688282138794084
sS'remaining'
p628
F0.00022753128555176336
sS'smart'
p629
F0.0009101251422070534
sS'take'
p630
F0.0006825938566552901
sS'grip'
p631
F0.0006825938566552901
sS'customers'
p632
F0.0006825938566552901
sS'around'
p633
F0.00022753128555176336
sS'big'
p634
F0.0011376564277588168
sS'showing'
p635
F0.00022753128555176336
sS'dark'
p636
F0.00022753128555176336
sS'game'
p637
F0.00022753128555176336
sS'appearing'
p638
F0.00022753128555176336
sS'bit'
p639
F0.0011376564277588168
sS'glitches'
p640
F0.0006825938566552901
sS'disappointed'
p641
F0.0006825938566552901
sS'rear'
p642
F0.004550625711035267
sS'apart'
p643
F0.00022753128555176336
sS'crisp'
p644
F0.0018202502844141069
sS'like'
p645
F0.004550625711035267
sS'gift'
p646
F0.00022753128555176336
sS'vibrant'
p647
F0.0006825938566552901
sS'signal'
p648
F0.0009101251422070534
sS'zoom'
p649
F0.0006825938566552901
sS'facing'
p650
F0.00022753128555176336
sS'either'
p651
F0.00022753128555176336
sS'flickering'
p652
F0.00022753128555176336
sS'fully'
p653
F0.00022753128555176336
sS'output'
p654
F0.0011376564277588168
sS'works'
p655
F0.0027303754266211604
sS'soft'
p656
F0.0011376564277588168
sS'audible'
p657
F0.00022753128555176336
sS'replacement'
p658
F0.00022753128555176336
sS'satisfactory'
p659
F0.0006825938566552901
sS'google'
p660
F0.00022753128555176336
sS'old'
p661
F0.00022753128555176336
sS'deal'
p662
F0.0006825938566552901
sS'people'
p663
F0.0006825938566552901
sS'absolutely'
p664
F0.0009101251422070534
sS'dead'
p665
F0.00022753128555176336
sS'tempered'
p666
F0.00022753128555176336
sS'daylight'
p667
F0.0009101251422070534
sS'palm'
p668
F0.0006825938566552901
sS'specified'
p669
F0.00022753128555176336
sS'images'
p670
F0.0011376564277588168
sS'home'
p671
F0.00022753128555176336
sS'provided'
p672
F0.0009101251422070534
sS'bottom'
p673
F0.00022753128555176336
sS'decision'
p674
F0.0006825938566552901
sS'normal'
p675
F0.0009101251422070534
sS'per'
p676
F0.00022753128555176336
sS'everything'
p677
F0.0022753128555176336
sS'does'
p678
F0.0013651877133105802
sS'connecting'
p679
F0.00022753128555176336
sS'moderate'
p680
F0.0013651877133105802
sS'blurry'
p681
F0.00022753128555176336
sS'core'
p682
F0.0006825938566552901
sS'particular'
p683
F0.00022753128555176336
sS'run'
p684
F0.00022753128555176336
sS'power'
p685
F0.0018202502844141069
sS'seconds'
p686
F0.00022753128555176336
sS'night'
p687
F0.0009101251422070534
sS'broken'
p688
F0.00022753128555176336
sS'although'
p689
F0.00022753128555176336
sS'stylish'
p690
F0.0011376564277588168
sS'super'
p691
F0.005005688282138794
sS'panel'
p692
F0.0006825938566552901
sS'ok'
p693
F0.0020477815699658703
sS'anything'
p694
F0.0006825938566552901
sS'getting'
p695
F0.0009101251422070534
sS'goodmacro'
p696
F0.0006825938566552901
sS'months'
p697
F0.00022753128555176336
sS'hot'
p698
F0.0006825938566552901
sS'range'
p699
F0.0029579067121729237
sS'nothing'
p700
F0.0006825938566552901
sS'stand'
p701
F0.00022753128555176336
sS'lasting'
p702
F0.0009101251422070534
sS'backup'
p703
F0.006370875995449375
sS'processor'
p704
F0.0034129692832764505
sS'automatically'
p705
F0.00022753128555176336
sS'lags'
p706
F0.0029579067121729237
sS'repair'
p707
F0.00022753128555176336
sS'discharging'
p708
F0.00022753128555176336
sS'image'
p709
F0.00022753128555176336
sS'within'
p710
F0.0006825938566552901
sS'headphone'
p711
F0.00022753128555176336
sS'down'
p712
F0.00022753128555176336
sS'complaints'
p713
F0.0009101251422070534
sS'guard'
p714
F0.0013651877133105802
sS'doesnt'
p715
F0.0011376564277588168
sS'heated'
p716
F0.0006825938566552901
sS'quickly'
p717
F0.00022753128555176336
sS'behaving'
p718
F0.00022753128555176336
sS'area'
p719
F0.00022753128555176336
sS'amazingly'
p720
F0.0009101251422070534
sS'support'
p721
F0.0011376564277588168
sS'smoothly'
p722
F0.0015927189988623437
sS'apps'
p723
F0.0018202502844141069
sS'fast'
p724
F0.0072810011376564275
sS'custom'
p725
F0.00022753128555176336
sS'window'
p726
F0.00022753128555176336
sS'low'
p727
F0.0029579067121729237
sS'lot'
p728
F0.0006825938566552901
sS'biggest'
p729
F0.00022753128555176336
sS'damn'
p730
F0.00022753128555176336
sS'happy'
p731
F0.0011376564277588168
sS'function'
p732
F0.00022753128555176336
sS'buy'
p733
F0.0013651877133105802
sS'complete'
p734
F0.00022753128555176336
sS'drains'
p735
F0.00022753128555176336
sS'memory'
p736
F0.0009101251422070534
sS'buttery'
p737
F0.0013651877133105802
sS'delivery'
p738
F0.0011376564277588168
sS'heat'
p739
F0.0009101251422070534
sS'properly'
p740
F0.00022753128555176336
sS'hear'
p741
F0.00022753128555176336
sS'multitasking'
p742
F0.0015927189988623437
sS'line'
p743
F0.00022753128555176336
sS'ear'
p744
F0.0011376564277588168
sS'true'
p745
F0.00022753128555176336
sS'dull'
p746
F0.00022753128555176336
sS'hd'
p747
F0.0015927189988623437
sS'longer'
p748
F0.00022753128555176336
sS'reset'
p749
F0.00022753128555176336
sS'made'
p750
F0.0009101251422070534
sS'wise'
p751
F0.0009101251422070534
sS'evident'
p752
F0.00022753128555176336
sS'default'
p753
F0.00022753128555176336
sS'smooth'
p754
F0.007508532423208191
sS'flip'
p755
F0.00022753128555176336
sS'devices'
p756
F0.00022753128555176336
sS'par'
p757
F0.0006825938566552901
sS'crystal'
p758
F0.0006825938566552901
sS'back-up'
p759
F0.0006825938566552901
sS'ui'
p760
F0.005233219567690558
sS'dirty'
p761
F0.0006825938566552901
sS'continuously'
p762
F0.0006825938566552901
sS'problem'
p763
F0.0027303754266211604
sS'piece'
p764
F0.00022753128555176336
sS'minutes'
p765
F0.0006825938566552901
sS'display'
p766
F0.011831626848691695
sS'connect'
p767
F0.00022753128555176336
sS'sometimes'
p768
F0.00022753128555176336
sS'scanner'
p769
F0.002502844141069397
sS'metal'
p770
F0.0011376564277588168
sS'handset'
p771
F0.00022753128555176336
sS'pic'
p772
F0.00022753128555176336
sS'life'
p773
F0.004550625711035267
sS'inr'
p774
F0.00022753128555176336
sS'water'
p775
F0.0011376564277588168
sS'proper'
p776
F0.00022753128555176336
sS'single'
p777
F0.00022753128555176336
sS'sometime'
p778
F0.00022753128555176336
sS'specially'
p779
F0.0006825938566552901
sS'again'
p780
F0.00022753128555176336
sS'compared'
p781
F0.00022753128555176336
sS'no'
p782
F0.01274175199089875
sS'nd'
p783
F0.0006825938566552901
sS'ringtone'
p784
F0.00022753128555176336
sS'application'
p785
F0.0006825938566552901
sS'setting'
p786
F0.00022753128555176336
sS'heats'
p787
F0.0006825938566552901
sS'clicks'
p788
F0.0009101251422070534
sS'nice'
p789
F0.007053469852104664
sS'poor'
p790
F0.0006825938566552901
sS'picture'
p791
F0.0006825938566552901
sS'star'
p792
F0.00022753128555176336
sS'why'
p793
F0.00022753128555176336
sS'felt'
p794
F0.00022753128555176336
sS'problems'
p795
F0.0009101251422070534
sS'update'
p796
F0.00022753128555176336
sS'replace'
p797
F0.00022753128555176336
sS'brands'
p798
F0.0006825938566552901
sS'discharge'
p799
F0.00022753128555176336
sS'unlocking'
p800
F0.00022753128555176336
sS'earphones'
p801
F0.0009101251422070534
sS'opened'
p802
F0.0006825938566552901
sS'remote'
p803
F0.0006825938566552901
sS'faster'
p804
F0.0006825938566552901
sS'calls'
p805
F0.0006825938566552901
sS'phone'
p806
F0.029351535836177476
sS'contacts'
p807
F0.0006825938566552901
sS'compete'
p808
F0.0006825938566552901
sS'reception'
p809
F0.00022753128555176336
sS'time'
p810
F0.002502844141069397
sS'resolution'
p811
F0.0015927189988623437
sS'having'
p812
F0.0009101251422070534
s.